; Function Attrs: nounwind uwtable
define internal fastcc range(i32 0, 3) i32 @__itt_lib_version(ptr noundef %0) unnamed_addr #0 {
  %2 = icmp eq ptr %0, null
  br i1 %2, label %7, label %3

3:                                                ; preds = %1
  %4 = tail call ptr @dlsym(ptr noundef nonnull %0, ptr noundef nonnull @.str.5) #14
  %.not = icmp eq ptr %4, null
  br i1 %.not, label %5, label %7

5:                                                ; preds = %3
  %6 = tail call ptr @dlsym(ptr noundef nonnull %0, ptr noundef nonnull @.str.150) #14
  %.not4 = icmp ne ptr %6, null
  %. = zext i1 %.not4 to i32
  br label %7

7:                                                ; preds = %5, %3, %1
  %.0 = phi i32 [ 0, %1 ], [ 2, %3 ], [ %., %5 ]
  ret i32 %.0
}